; Function Attrs: mustprogress uwtable
define hidden void @_ZN2cv19getMorphologyFilterEiiRKNS_11_InputArrayENS_6Point_IiEE(ptr dead_on_unwind noalias nocapture writable writeonly sret(%"struct.cv::Ptr.84") align 8 %0, i32 noundef %1, i32 noundef %2, ptr noundef nonnull align 8 dereferenceable(24) %3, i64 %4) local_unnamed_addr #3 personality ptr @__gxx_personality_v0 {
  %6 = alloca %"class.cv::utils::trace::details::Region", align 8
  %7 = alloca %"class.cv::Mat", align 8
  call void @_ZN2cv5utils5trace7details6RegionC1ERKNS3_21LocationStaticStorageE(ptr noundef nonnull align 8 dereferenceable(12) %6, ptr noundef nonnull align 8 dereferenceable(32) @_ZZN2cv19getMorphologyFilterEiiRKNS_11_InputArrayENS_6Point_IiEEE24__cv_trace_location_fn82)
  %8 = invoke noundef i32 @_ZNK2cv11_InputArray4kindEv(ptr noundef nonnull align 8 dereferenceable(24) %3)
          to label %.noexc unwind label %21

.noexc:                                           ; preds = %5
  %9 = icmp eq i32 %8, 65536
  br i1 %9, label %10, label %13

10:                                               ; preds = %.noexc
  %11 = getelementptr inbounds i8, ptr %3, i64 8
  %12 = load ptr, ptr %11, align 8, !noalias !155
  invoke void @_ZN2cv3MatC1ERKS0_(ptr noundef nonnull align 8 dereferenceable(96) %7, ptr noundef nonnull align 8 dereferenceable(96) %12)
          to label %_ZNK2cv11_InputArray6getMatEi.exit unwind label %21

13:                                               ; preds = %.noexc
  invoke void @_ZNK2cv11_InputArray7getMat_Ei(ptr dead_on_unwind nonnull writable sret(%"class.cv::Mat") align 8 %7, ptr noundef nonnull align 8 dereferenceable(24) %3, i32 noundef -1)
          to label %_ZNK2cv11_InputArray6getMatEi.exit unwind label %21

_ZNK2cv11_InputArray6getMatEi.exit:               ; preds = %10, %13
  invoke void @_ZN2cv12cpu_baseline19getMorphologyFilterEiiRKNS_3MatENS_6Point_IiEE(ptr dead_on_unwind writable sret(%"struct.cv::Ptr.84") align 8 %0, i32 noundef %1, i32 noundef %2, ptr noundef nonnull align 8 dereferenceable(96) %7, i64 %4)
          to label %14 unwind label %23

14:                                               ; preds = %_ZNK2cv11_InputArray6getMatEi.exit
  call void @_ZN2cv3MatD1Ev(ptr noundef nonnull align 8 dereferenceable(96) %7) #24
  %15 = getelementptr inbounds i8, ptr %6, i64 8
  %16 = load i32, ptr %15, align 8
  %.not.i = icmp eq i32 %16, 0
  br i1 %.not.i, label %_ZN2cv5utils5trace7details6RegionD2Ev.exit, label %17

17:                                               ; preds = %14
  invoke void @_ZN2cv5utils5trace7details6Region7destroyEv(ptr noundef nonnull align 8 dereferenceable(12) %6)
          to label %_ZN2cv5utils5trace7details6RegionD2Ev.exit unwind label %18

18:                                               ; preds = %17
  %19 = landingpad { ptr, i32 }
          catch ptr null
  %20 = extractvalue { ptr, i32 } %19, 0
  call void @__clang_call_terminate(ptr %20) #28
  unreachable

_ZN2cv5utils5trace7details6RegionD2Ev.exit:       ; preds = %14, %17
  ret void

21:                                               ; preds = %13, %10, %5
  %22 = landingpad { ptr, i32 }
          cleanup
  br label %25

23:                                               ; preds = %_ZNK2cv11_InputArray6getMatEi.exit
  %24 = landingpad { ptr, i32 }
          cleanup
  call void @_ZN2cv3MatD1Ev(ptr noundef nonnull align 8 dereferenceable(96) %7) #24
  br label %25

25:                                               ; preds = %23, %21
  %.pn = phi { ptr, i32 } [ %24, %23 ], [ %22, %21 ]
  call void @_ZN2cv5utils5trace7details6RegionD2Ev(ptr noundef nonnull align 8 dereferenceable(12) %6) #24
  resume { ptr, i32 } %.pn
}